(dp0
F1.0
(lp1
(F450.2586206896552
F641.6904308381887
tp2
a(F49.48850574712644
F64.69597538703867
tp3
asF2.0
(lp4
(F94.31073446327683
F88.45851331159939
tp5
a(F12.101694915254237
F12.553560136906984
tp6
asF3.0
(lp7
(F26.104938271604937
F27.015663279263116
tp8
a(F9.592592592592593
F11.759259893237967
tp9
asF4.0
(lp10
(F28.993865030674847
F34.32820834322332
tp11
a(F4.957055214723926
F6.872156824670002
tp12
asF5.0
(lp13
(F30.312925170068027
F36.03989469848549
tp14
a(F2.4761904761904763
F2.6978767230519205
tp15
asF6.0
(lp16
(F2.8333333333333335
F2.681120250399345
tp17
a(F1.4583333333333333
F0.6580053301400787
tp18
as.